target datalayout = "e-m:e-p270:32:32-p271:32:32-p272:64:64-i64:64-i128:128-f80:128-n8:16:32:64-S128"
target triple = "x86_64-unknown-linux-gnu"

%"class.std::basic_istream" = type { ptr, i64, %"class.std::basic_ios" }
%"class.std::basic_ios" = type { %"class.std::ios_base", ptr, i8, i8, ptr, ptr, ptr, ptr }
%"class.std::ios_base" = type { ptr, i64, i64, i32, i32, i32, ptr, %"struct.std::ios_base::_Words", [8 x %"struct.std::ios_base::_Words"], i32, ptr, %"class.std::locale" }
%"struct.std::ios_base::_Words" = type { ptr, i64 }
%"class.std::locale" = type { ptr }
%"class.std::basic_ostream" = type { ptr, %"class.std::basic_ios" }
%class.veloxtpFlexLexer = type <{ %class.FlexLexer.base, i32, i32, [4 x i8], ptr, %"class.std::basic_istream", %"class.std::basic_ostream", i8, [3 x i8], i32, ptr, i32, i32, i32, [4 x i8], i64, i64, ptr, i32, [4 x i8], ptr, ptr, ptr, ptr, ptr, i32, i32, i32, i32, i32, i32, i32, [4 x i8] }>
%class.FlexLexer.base = type <{ ptr, ptr, i32, i32, i32 }>
%class.FlexLexer = type <{ ptr, ptr, i32, i32, i32, [4 x i8] }>

@_ZSt3cin = external global %"class.std::basic_istream", align 8
@_ZSt4cout = external global %"class.std::basic_ostream", align 8

; Function Attrs: mustprogress nounwind uwtable
define linkonce_odr void @_ZN9FlexLexerD2Ev(ptr noundef nonnull align 8 dereferenceable(28) %this) unnamed_addr #4 comdat align 2 {
entry:
  %this.addr = alloca ptr, align 8
  store ptr %this, ptr %this.addr, align 8
  ret void
}

; Function Attrs: mustprogress nounwind uwtable
define void @_ZN16veloxtpFlexLexer11ctor_commonEv(ptr noundef nonnull align 8 dereferenceable(732) %this) #4 align 2 {
entry:
  %this.addr = alloca ptr, align 8
  store ptr %this, ptr %this.addr, align 8
  %this1 = load ptr, ptr %this.addr, align 8
  %yy_c_buf_p = getelementptr inbounds %class.veloxtpFlexLexer, ptr %this1, i32 0, i32 10
  store ptr null, ptr %yy_c_buf_p, align 8
  %yy_init = getelementptr inbounds %class.veloxtpFlexLexer, ptr %this1, i32 0, i32 11
  store i32 0, ptr %yy_init, align 8
  %yy_start = getelementptr inbounds %class.veloxtpFlexLexer, ptr %this1, i32 0, i32 12
  store i32 0, ptr %yy_start, align 4
  %yy_flex_debug = getelementptr inbounds %class.FlexLexer, ptr %this1, i32 0, i32 4
  store i32 0, ptr %yy_flex_debug, align 8
  %yylineno = getelementptr inbounds %class.FlexLexer, ptr %this1, i32 0, i32 3
  store i32 1, ptr %yylineno, align 4
  %yy_did_buffer_switch_on_eof = getelementptr inbounds %class.veloxtpFlexLexer, ptr %this1, i32 0, i32 13
  store i32 0, ptr %yy_did_buffer_switch_on_eof, align 8
  %yy_looking_for_trail_begin = getelementptr inbounds %class.veloxtpFlexLexer, ptr %this1, i32 0, i32 27
  store i32 0, ptr %yy_looking_for_trail_begin, align 8
  %yy_more_flag = getelementptr inbounds %class.veloxtpFlexLexer, ptr %this1, i32 0, i32 28
  store i32 0, ptr %yy_more_flag, align 4
  %yy_more_len = getelementptr inbounds %class.veloxtpFlexLexer, ptr %this1, i32 0, i32 29
  store i32 0, ptr %yy_more_len, align 8
  %yy_prev_more_offset = getelementptr inbounds %class.veloxtpFlexLexer, ptr %this1, i32 0, i32 31
  store i32 0, ptr %yy_prev_more_offset, align 8
  %yy_more_offset = getelementptr inbounds %class.veloxtpFlexLexer, ptr %this1, i32 0, i32 30
  store i32 0, ptr %yy_more_offset, align 4
  %yy_start_stack_depth = getelementptr inbounds %class.veloxtpFlexLexer, ptr %this1, i32 0, i32 2
  store i32 0, ptr %yy_start_stack_depth, align 8
  %yy_start_stack_ptr = getelementptr inbounds %class.veloxtpFlexLexer, ptr %this1, i32 0, i32 1
  store i32 0, ptr %yy_start_stack_ptr, align 4
  %yy_start_stack = getelementptr inbounds %class.veloxtpFlexLexer, ptr %this1, i32 0, i32 4
  store ptr null, ptr %yy_start_stack, align 8
  %yy_buffer_stack = getelementptr inbounds %class.veloxtpFlexLexer, ptr %this1, i32 0, i32 17
  store ptr null, ptr %yy_buffer_stack, align 8
  %yy_buffer_stack_top = getelementptr inbounds %class.veloxtpFlexLexer, ptr %this1, i32 0, i32 15
  store i64 0, ptr %yy_buffer_stack_top, align 8
  %yy_buffer_stack_max = getelementptr inbounds %class.veloxtpFlexLexer, ptr %this1, i32 0, i32 16
  store i64 0, ptr %yy_buffer_stack_max, align 8
  %yy_state_buf = getelementptr inbounds %class.veloxtpFlexLexer, ptr %this1, i32 0, i32 21
  store ptr null, ptr %yy_state_buf, align 8
  ret void
}

; Function Attrs: mustprogress nounwind uwtable
define linkonce_odr void @_ZN9FlexLexerC2Ev(ptr noundef nonnull align 8 dereferenceable(28) %this) unnamed_addr #4 comdat align 2 {
entry:
  %this.addr = alloca ptr, align 8
  store ptr %this, ptr %this.addr, align 8
  %this1 = load ptr, ptr %this.addr, align 8
  store ptr getelementptr inbounds ({ [13 x ptr] }, ptr @_ZTV9FlexLexer, i32 0, i32 0, i32 2), ptr %this1, align 8
  ret void
}

; Function Attrs: mustprogress uwtable
define void @_ZN16veloxtpFlexLexerC2EPSiPSo(ptr noundef nonnull align 8 dereferenceable(732) %this, ptr noundef %arg_yyin, ptr noundef %arg_yyout) unnamed_addr #5 align 2 personality ptr @__gxx_personality_v0 {
entry:
  %this.addr = alloca ptr, align 8
  %arg_yyin.addr = alloca ptr, align 8
  %arg_yyout.addr = alloca ptr, align 8
  %exn.slot = alloca ptr, align 8
  %ehselector.slot = alloca i32, align 4
  store ptr %this, ptr %this.addr, align 8
  store ptr %arg_yyin, ptr %arg_yyin.addr, align 8
  store ptr %arg_yyout, ptr %arg_yyout.addr, align 8
  %this1 = load ptr, ptr %this.addr, align 8
  call void @_ZN9FlexLexerC2Ev(ptr noundef nonnull align 8 dereferenceable(28) %this1) #3
  store ptr getelementptr inbounds ({ [17 x ptr] }, ptr @_ZTV16veloxtpFlexLexer, i32 0, i32 0, i32 2), ptr %this1, align 8
  %yyin = getelementptr inbounds %class.veloxtpFlexLexer, ptr %this1, i32 0, i32 5
  %0 = load ptr, ptr %arg_yyin.addr, align 8
  %tobool = icmp ne ptr %0, null
  br i1 %tobool, label %cond.true, label %cond.false

cond.true:                                        ; preds = %entry
  %1 = load ptr, ptr %arg_yyin.addr, align 8
  %vtable = load ptr, ptr %1, align 8
  %vbase.offset.ptr = getelementptr i8, ptr %vtable, i64 -24
  %vbase.offset = load i64, ptr %vbase.offset.ptr, align 8
  %add.ptr = getelementptr inbounds i8, ptr %1, i64 %vbase.offset
  %call = invoke noundef ptr @_ZNKSt9basic_iosIcSt11char_traitsIcEE5rdbufEv(ptr noundef nonnull align 8 dereferenceable(264) %add.ptr)
          to label %invoke.cont unwind label %lpad

invoke.cont:                                      ; preds = %cond.true
  br label %cond.end

cond.false:                                       ; preds = %entry
  %vtable2 = load ptr, ptr @_ZSt3cin, align 8
  %vbase.offset.ptr3 = getelementptr i8, ptr %vtable2, i64 -24
  %vbase.offset4 = load i64, ptr %vbase.offset.ptr3, align 8
  %add.ptr5 = getelementptr inbounds i8, ptr @_ZSt3cin, i64 %vbase.offset4
  %call7 = invoke noundef ptr @_ZNKSt9basic_iosIcSt11char_traitsIcEE5rdbufEv(ptr noundef nonnull align 8 dereferenceable(264) %add.ptr5)
          to label %invoke.cont6 unwind label %lpad

invoke.cont6:                                     ; preds = %cond.false
  br label %cond.end

cond.end:                                         ; preds = %invoke.cont6, %invoke.cont
  %cond = phi ptr [ %call, %invoke.cont ], [ %call7, %invoke.cont6 ]
  invoke void @_ZNSiC1EPSt15basic_streambufIcSt11char_traitsIcEE(ptr noundef nonnull align 8 dereferenceable(16) %yyin, ptr noundef %cond)
          to label %invoke.cont8 unwind label %lpad

invoke.cont8:                                     ; preds = %cond.end
  %yyout = getelementptr inbounds %class.veloxtpFlexLexer, ptr %this1, i32 0, i32 6
  %2 = load ptr, ptr %arg_yyout.addr, align 8
  %tobool9 = icmp ne ptr %2, null
  br i1 %tobool9, label %cond.true10, label %cond.false18

cond.true10:                                      ; preds = %invoke.cont8
  %3 = load ptr, ptr %arg_yyout.addr, align 8
  %vtable11 = load ptr, ptr %3, align 8
  %vbase.offset.ptr12 = getelementptr i8, ptr %vtable11, i64 -24
  %vbase.offset13 = load i64, ptr %vbase.offset.ptr12, align 8
  %add.ptr14 = getelementptr inbounds i8, ptr %3, i64 %vbase.offset13
  %call17 = invoke noundef ptr @_ZNKSt9basic_iosIcSt11char_traitsIcEE5rdbufEv(ptr noundef nonnull align 8 dereferenceable(264) %add.ptr14)
          to label %invoke.cont16 unwind label %lpad15

invoke.cont16:                                    ; preds = %cond.true10
  br label %cond.end25

cond.false18:                                     ; preds = %invoke.cont8
  %vtable19 = load ptr, ptr @_ZSt4cout, align 8
  %vbase.offset.ptr20 = getelementptr i8, ptr %vtable19, i64 -24
  %vbase.offset21 = load i64, ptr %vbase.offset.ptr20, align 8
  %add.ptr22 = getelementptr inbounds i8, ptr @_ZSt4cout, i64 %vbase.offset21
  %call24 = invoke noundef ptr @_ZNKSt9basic_iosIcSt11char_traitsIcEE5rdbufEv(ptr noundef nonnull align 8 dereferenceable(264) %add.ptr22)
          to label %invoke.cont23 unwind label %lpad15

invoke.cont23:                                    ; preds = %cond.false18
  br label %cond.end25

cond.end25:                                       ; preds = %invoke.cont23, %invoke.cont16
  %cond26 = phi ptr [ %call17, %invoke.cont16 ], [ %call24, %invoke.cont23 ]
  invoke void @_ZNSoC1EPSt15basic_streambufIcSt11char_traitsIcEE(ptr noundef nonnull align 8 dereferenceable(8) %yyout, ptr noundef %cond26)
          to label %invoke.cont27 unwind label %lpad15

invoke.cont27:                                    ; preds = %cond.end25
  invoke void @_ZN16veloxtpFlexLexer11ctor_commonEv(ptr noundef nonnull align 8 dereferenceable(732) %this1)
          to label %invoke.cont29 unwind label %lpad28

invoke.cont29:                                    ; preds = %invoke.cont27
  ret void

lpad:                                             ; preds = %cond.end, %cond.false, %cond.true
  %4 = landingpad { ptr, i32 }
          cleanup
  %5 = extractvalue { ptr, i32 } %4, 0
  store ptr %5, ptr %exn.slot, align 8
  %6 = extractvalue { ptr, i32 } %4, 1
  store i32 %6, ptr %ehselector.slot, align 4
  br label %ehcleanup30

lpad15:                                           ; preds = %cond.end25, %cond.false18, %cond.true10
  %7 = landingpad { ptr, i32 }
          cleanup
  %8 = extractvalue { ptr, i32 } %7, 0
  store ptr %8, ptr %exn.slot, align 8
  %9 = extractvalue { ptr, i32 } %7, 1
  store i32 %9, ptr %ehselector.slot, align 4
  br label %ehcleanup

lpad28:                                           ; preds = %invoke.cont27
  %10 = landingpad { ptr, i32 }
          cleanup
  %11 = extractvalue { ptr, i32 } %10, 0
  store ptr %11, ptr %exn.slot, align 8
  %12 = extractvalue { ptr, i32 } %10, 1
  store i32 %12, ptr %ehselector.slot, align 4
  call void @_ZNSoD1Ev(ptr noundef nonnull align 8 dereferenceable(8) %yyout) #3
  br label %ehcleanup

ehcleanup:                                        ; preds = %lpad28, %lpad15
  call void @_ZNSiD1Ev(ptr noundef nonnull align 8 dereferenceable(16) %yyin) #3
  br label %ehcleanup30

ehcleanup30:                                      ; preds = %ehcleanup, %lpad
  call void @_ZN9FlexLexerD2Ev(ptr noundef nonnull align 8 dereferenceable(28) %this1) #3
  br label %eh.resume

eh.resume:                                        ; preds = %ehcleanup30
  %exn = load ptr, ptr %exn.slot, align 8
  %sel = load i32, ptr %ehselector.slot, align 4
  %lpad.val = insertvalue { ptr, i32 } poison, ptr %exn, 0
  %lpad.val31 = insertvalue { ptr, i32 } %lpad.val, i32 %sel, 1
  resume { ptr, i32 } %lpad.val31
}