; Function Attrs: mustprogress uwtable
define void @_ZN16veloxtpFlexLexerC2EPSiPSo(ptr noundef nonnull align 8 dereferenceable(732) %this, ptr noundef %arg_yyin, ptr noundef %arg_yyout) unnamed_addr #4 align 2 personality ptr @__gxx_personality_v0 {
entry:
  store ptr getelementptr inbounds ({ [17 x ptr] }, ptr @_ZTV16veloxtpFlexLexer, i64 0, i32 0, i64 2), ptr %this, align 8
  %yyin = getelementptr inbounds i8, ptr %this, i64 48
  %tobool.not = icmp eq ptr %arg_yyin, null
  %_ZSt3cin.arg_yyin = select i1 %tobool.not, ptr @_ZSt3cin, ptr %arg_yyin
  %vtable = load ptr, ptr %_ZSt3cin.arg_yyin, align 8
  %vbase.offset.ptr = getelementptr i8, ptr %vtable, i64 -24
  %vbase.offset = load i64, ptr %vbase.offset.ptr, align 8
  %add.ptr = getelementptr inbounds i8, ptr %_ZSt3cin.arg_yyin, i64 %vbase.offset
  %call = tail call noundef ptr @_ZNKSt9basic_iosIcSt11char_traitsIcEE5rdbufEv(ptr noundef nonnull align 8 dereferenceable(264) %add.ptr)
  tail call void @_ZNSiC1EPSt15basic_streambufIcSt11char_traitsIcEE(ptr noundef nonnull align 8 dereferenceable(16) %yyin, ptr noundef %call)
  %tobool9.not = icmp eq ptr %arg_yyout, null
  %_ZSt4cout.arg_yyout = select i1 %tobool9.not, ptr @_ZSt4cout, ptr %arg_yyout
  %vtable11 = load ptr, ptr %_ZSt4cout.arg_yyout, align 8
  %vbase.offset.ptr12 = getelementptr i8, ptr %vtable11, i64 -24
  %vbase.offset13 = load i64, ptr %vbase.offset.ptr12, align 8
  %add.ptr14 = getelementptr inbounds i8, ptr %_ZSt4cout.arg_yyout, i64 %vbase.offset13
  %0 = invoke noundef ptr @_ZNKSt9basic_iosIcSt11char_traitsIcEE5rdbufEv(ptr noundef nonnull align 8 dereferenceable(264) %add.ptr14)
          to label %cond.end25 unwind label %lpad15

cond.end25:                                       ; preds = %entry
  %yyout = getelementptr inbounds i8, ptr %this, i64 328
  invoke void @_ZNSoC1EPSt15basic_streambufIcSt11char_traitsIcEE(ptr noundef nonnull align 8 dereferenceable(8) %yyout, ptr noundef %0)
          to label %invoke.cont27 unwind label %lpad15

invoke.cont27:                                    ; preds = %cond.end25
  %yy_c_buf_p.i = getelementptr inbounds i8, ptr %this, i64 608
  %yylineno.i = getelementptr inbounds i8, ptr %this, i64 20
  tail call void @llvm.memset.p0.i64(ptr noundef nonnull align 8 dereferenceable(16) %yy_c_buf_p.i, i8 0, i64 16, i1 false)
  %yy_did_buffer_switch_on_eof.i = getelementptr inbounds i8, ptr %this, i64 624
  store i32 0, ptr %yy_did_buffer_switch_on_eof.i, align 8
  %yy_looking_for_trail_begin.i = getelementptr inbounds i8, ptr %this, i64 712
  store <4 x i32> <i32 1, i32 0, i32 0, i32 0>, ptr %yylineno.i, align 4
  %yy_start_stack.i = getelementptr inbounds i8, ptr %this, i64 40
  store ptr null, ptr %yy_start_stack.i, align 8
  %yy_buffer_stack_top.i = getelementptr inbounds i8, ptr %this, i64 632
  %yy_state_buf.i = getelementptr inbounds i8, ptr %this, i64 672
  store ptr null, ptr %yy_state_buf.i, align 8
  tail call void @llvm.memset.p0.i64(ptr noundef nonnull align 8 dereferenceable(24) %yy_buffer_stack_top.i, i8 0, i64 24, i1 false)
  tail call void @llvm.memset.p0.i64(ptr noundef nonnull align 8 dereferenceable(20) %yy_looking_for_trail_begin.i, i8 0, i64 20, i1 false)
  ret void

lpad15:                                           ; preds = %entry, %cond.end25
  %1 = landingpad { ptr, i32 }
          cleanup
  tail call void @_ZNSiD1Ev(ptr noundef nonnull align 8 dereferenceable(16) %yyin) #34
  resume { ptr, i32 } %1
}